ccopy_reg
_reconstructor
p0
(csklearn.linear_model.base
LinearRegression
p1
c__builtin__
object
p2
Ntp3
Rp4
(dp5
S'normalize'
p6
I00
sS'n_jobs'
p7
I-1
sS'rank_'
p8
I4
sS'fit_intercept'
p9
I01
sS'_residues'
p10
cnumpy.core.multiarray
scalar
p11
(cnumpy
dtype
p12
(S'f8'
p13
I0
I1
tp14
Rp15
(I3
S'<'
p16
NNNI-1
I-1
I0
tp17
bS'\x14\xb1\xaa\x0f\xd7\xf8GA'
p18
tp19
Rp20
sS'coef_'
p21
cnumpy.core.multiarray
_reconstruct
p22
(cnumpy
ndarray
p23
(I0
tp24
S'b'
p25
tp26
Rp27
(I1
(I4
tp28
g15
I00
S'\xf0\xe9\xad\xcd\xcd\x9af@`P}B\x9d\x8a\xfa\xbf`shA\xc7T\xdc\xbf\xc0u\\t\xb8>\n\xc0'
p29
tp30
bsS'copy_X'
p31
I01
sS'intercept_'
p32
g11
(g15
S'X\x0eu\x15\x01\xdfu@'
p33
tp34
Rp35
sS'singular_'
p36
g22
(g23
(I0
tp37
g25
tp38
Rp39
(I1
(I4
tp40
g15
I00
S')$B\xc4\xc5\x1dR@\x9f0\xfe\xa5\xd5\x11J@\xf7\xee\x08\xe2\xceiE@\x87\x82 m\xcbj>@'
p41
tp42
bsb.